target datalayout = "e-m:e-p270:32:32-p271:32:32-p272:64:64-i64:64-i128:128-f80:128-n8:16:32:64-S128"
target triple = "x86_64-pc-linux-gnu"

%struct.dlist_node = type { ptr, ptr }
%struct.PgStat_TableStatus = type { i32, i8, ptr, %struct.PgStat_TableCounts, ptr }
%struct.PgStat_TableCounts = type { i64, i64, i64, i64, i64, i64, i64, i64, i8, i64, i64, i64, i64, i64 }
%struct.PgStat_TableXactStatus = type { i64, i64, i64, i8, i64, i64, i64, i32, ptr, ptr, ptr }
%struct.PgStat_SubXactStatus = type { i32, ptr, %struct.dclist_head, ptr }
%struct.dclist_head = type { %struct.dlist_head, i32 }
%struct.dlist_head = type { %struct.dlist_node }

; Function Attrs: nounwind uwtable
define internal void @restore_truncdrop_counters(ptr noundef %0) #0 {
  %2 = alloca ptr, align 8
  store ptr %0, ptr %2, align 8
  %3 = load ptr, ptr %2, align 8
  %4 = getelementptr inbounds nuw %struct.PgStat_TableXactStatus, ptr %3, i32 0, i32 3
  %5 = load i8, ptr %4, align 8, !range !4, !noundef !5
  %6 = trunc i8 %5 to i1
  br i1 %6, label %7, label %23

7:                                                ; preds = %1
  %8 = load ptr, ptr %2, align 8
  %9 = getelementptr inbounds nuw %struct.PgStat_TableXactStatus, ptr %8, i32 0, i32 4
  %10 = load i64, ptr %9, align 8
  %11 = load ptr, ptr %2, align 8
  %12 = getelementptr inbounds nuw %struct.PgStat_TableXactStatus, ptr %11, i32 0, i32 0
  store i64 %10, ptr %12, align 8
  %13 = load ptr, ptr %2, align 8
  %14 = getelementptr inbounds nuw %struct.PgStat_TableXactStatus, ptr %13, i32 0, i32 5
  %15 = load i64, ptr %14, align 8
  %16 = load ptr, ptr %2, align 8
  %17 = getelementptr inbounds nuw %struct.PgStat_TableXactStatus, ptr %16, i32 0, i32 1
  store i64 %15, ptr %17, align 8
  %18 = load ptr, ptr %2, align 8
  %19 = getelementptr inbounds nuw %struct.PgStat_TableXactStatus, ptr %18, i32 0, i32 6
  %20 = load i64, ptr %19, align 8
  %21 = load ptr, ptr %2, align 8
  %22 = getelementptr inbounds nuw %struct.PgStat_TableXactStatus, ptr %21, i32 0, i32 2
  store i64 %20, ptr %22, align 8
  br label %23

23:                                               ; preds = %7, %1
  ret void
}

; Function Attrs: nounwind uwtable
define dso_local void @AtEOXact_PgStat_Relations(ptr noundef %0, i1 noundef zeroext %1) #0 {
  %3 = alloca ptr, align 8
  %4 = alloca i8, align 1
  %5 = alloca ptr, align 8
  %6 = alloca ptr, align 8
  store ptr %0, ptr %3, align 8
  %7 = zext i1 %1 to i8
  store i8 %7, ptr %4, align 1
  call void @llvm.lifetime.start.p0(i64 8, ptr %5) #6
  %8 = load ptr, ptr %3, align 8
  %9 = getelementptr inbounds nuw %struct.PgStat_SubXactStatus, ptr %8, i32 0, i32 3
  %10 = load ptr, ptr %9, align 8
  store ptr %10, ptr %5, align 8
  br label %11

11:                                               ; preds = %126, %2
  %12 = load ptr, ptr %5, align 8
  %13 = icmp ne ptr %12, null
  br i1 %13, label %14, label %130

14:                                               ; preds = %11
  call void @llvm.lifetime.start.p0(i64 8, ptr %6) #6
  %15 = load ptr, ptr %5, align 8
  %16 = getelementptr inbounds nuw %struct.PgStat_TableXactStatus, ptr %15, i32 0, i32 9
  %17 = load ptr, ptr %16, align 8
  store ptr %17, ptr %6, align 8
  %18 = load i8, ptr %4, align 1, !range !4, !noundef !5
  %19 = trunc i8 %18 to i1
  br i1 %19, label %22, label %20

20:                                               ; preds = %14
  %21 = load ptr, ptr %5, align 8
  call void @restore_truncdrop_counters(ptr noundef %21)
  br label %22

22:                                               ; preds = %20, %14
  %23 = load ptr, ptr %5, align 8
  %24 = getelementptr inbounds nuw %struct.PgStat_TableXactStatus, ptr %23, i32 0, i32 0
  %25 = load i64, ptr %24, align 8
  %26 = load ptr, ptr %6, align 8
  %27 = getelementptr inbounds nuw %struct.PgStat_TableStatus, ptr %26, i32 0, i32 3
  %28 = getelementptr inbounds nuw %struct.PgStat_TableCounts, ptr %27, i32 0, i32 3
  %29 = load i64, ptr %28, align 8
  %30 = add i64 %29, %25
  store i64 %30, ptr %28, align 8
  %31 = load ptr, ptr %5, align 8
  %32 = getelementptr inbounds nuw %struct.PgStat_TableXactStatus, ptr %31, i32 0, i32 1
  %33 = load i64, ptr %32, align 8
  %34 = load ptr, ptr %6, align 8
  %35 = getelementptr inbounds nuw %struct.PgStat_TableStatus, ptr %34, i32 0, i32 3
  %36 = getelementptr inbounds nuw %struct.PgStat_TableCounts, ptr %35, i32 0, i32 4
  %37 = load i64, ptr %36, align 8
  %38 = add i64 %37, %33
  store i64 %38, ptr %36, align 8
  %39 = load ptr, ptr %5, align 8
  %40 = getelementptr inbounds nuw %struct.PgStat_TableXactStatus, ptr %39, i32 0, i32 2
  %41 = load i64, ptr %40, align 8
  %42 = load ptr, ptr %6, align 8
  %43 = getelementptr inbounds nuw %struct.PgStat_TableStatus, ptr %42, i32 0, i32 3
  %44 = getelementptr inbounds nuw %struct.PgStat_TableCounts, ptr %43, i32 0, i32 5
  %45 = load i64, ptr %44, align 8
  %46 = add i64 %45, %41
  store i64 %46, ptr %44, align 8
  %47 = load i8, ptr %4, align 1, !range !4, !noundef !5
  %48 = trunc i8 %47 to i1
  br i1 %48, label %49, label %110

49:                                               ; preds = %22
  %50 = load ptr, ptr %5, align 8
  %51 = getelementptr inbounds nuw %struct.PgStat_TableXactStatus, ptr %50, i32 0, i32 3
  %52 = load i8, ptr %51, align 8, !range !4, !noundef !5
  %53 = trunc i8 %52 to i1
  %54 = load ptr, ptr %6, align 8
  %55 = getelementptr inbounds nuw %struct.PgStat_TableStatus, ptr %54, i32 0, i32 3
  %56 = getelementptr inbounds nuw %struct.PgStat_TableCounts, ptr %55, i32 0, i32 8
  %57 = zext i1 %53 to i8
  store i8 %57, ptr %56, align 8
  %58 = load ptr, ptr %5, align 8
  %59 = getelementptr inbounds nuw %struct.PgStat_TableXactStatus, ptr %58, i32 0, i32 3
  %60 = load i8, ptr %59, align 8, !range !4, !noundef !5
  %61 = trunc i8 %60 to i1
  br i1 %61, label %62, label %69

62:                                               ; preds = %49
  %63 = load ptr, ptr %6, align 8
  %64 = getelementptr inbounds nuw %struct.PgStat_TableStatus, ptr %63, i32 0, i32 3
  %65 = getelementptr inbounds nuw %struct.PgStat_TableCounts, ptr %64, i32 0, i32 9
  store i64 0, ptr %65, align 8
  %66 = load ptr, ptr %6, align 8
  %67 = getelementptr inbounds nuw %struct.PgStat_TableStatus, ptr %66, i32 0, i32 3
  %68 = getelementptr inbounds nuw %struct.PgStat_TableCounts, ptr %67, i32 0, i32 10
  store i64 0, ptr %68, align 8
  br label %69

69:                                               ; preds = %62, %49
  %70 = load ptr, ptr %5, align 8
  %71 = getelementptr inbounds nuw %struct.PgStat_TableXactStatus, ptr %70, i32 0, i32 0
  %72 = load i64, ptr %71, align 8
  %73 = load ptr, ptr %5, align 8
  %74 = getelementptr inbounds nuw %struct.PgStat_TableXactStatus, ptr %73, i32 0, i32 2
  %75 = load i64, ptr %74, align 8
  %76 = sub i64 %72, %75
  %77 = load ptr, ptr %6, align 8
  %78 = getelementptr inbounds nuw %struct.PgStat_TableStatus, ptr %77, i32 0, i32 3
  %79 = getelementptr inbounds nuw %struct.PgStat_TableCounts, ptr %78, i32 0, i32 9
  %80 = load i64, ptr %79, align 8
  %81 = add i64 %80, %76
  store i64 %81, ptr %79, align 8
  %82 = load ptr, ptr %5, align 8
  %83 = getelementptr inbounds nuw %struct.PgStat_TableXactStatus, ptr %82, i32 0, i32 1
  %84 = load i64, ptr %83, align 8
  %85 = load ptr, ptr %5, align 8
  %86 = getelementptr inbounds nuw %struct.PgStat_TableXactStatus, ptr %85, i32 0, i32 2
  %87 = load i64, ptr %86, align 8
  %88 = add i64 %84, %87
  %89 = load ptr, ptr %6, align 8
  %90 = getelementptr inbounds nuw %struct.PgStat_TableStatus, ptr %89, i32 0, i32 3
  %91 = getelementptr inbounds nuw %struct.PgStat_TableCounts, ptr %90, i32 0, i32 10
  %92 = load i64, ptr %91, align 8
  %93 = add i64 %92, %88
  store i64 %93, ptr %91, align 8
  %94 = load ptr, ptr %5, align 8
  %95 = getelementptr inbounds nuw %struct.PgStat_TableXactStatus, ptr %94, i32 0, i32 0
  %96 = load i64, ptr %95, align 8
  %97 = load ptr, ptr %5, align 8
  %98 = getelementptr inbounds nuw %struct.PgStat_TableXactStatus, ptr %97, i32 0, i32 1
  %99 = load i64, ptr %98, align 8
  %100 = add i64 %96, %99
  %101 = load ptr, ptr %5, align 8
  %102 = getelementptr inbounds nuw %struct.PgStat_TableXactStatus, ptr %101, i32 0, i32 2
  %103 = load i64, ptr %102, align 8
  %104 = add i64 %100, %103
  %105 = load ptr, ptr %6, align 8
  %106 = getelementptr inbounds nuw %struct.PgStat_TableStatus, ptr %105, i32 0, i32 3
  %107 = getelementptr inbounds nuw %struct.PgStat_TableCounts, ptr %106, i32 0, i32 11
  %108 = load i64, ptr %107, align 8
  %109 = add i64 %108, %104
  store i64 %109, ptr %107, align 8
  br label %123

110:                                              ; preds = %22
  %111 = load ptr, ptr %5, align 8
  %112 = getelementptr inbounds nuw %struct.PgStat_TableXactStatus, ptr %111, i32 0, i32 0
  %113 = load i64, ptr %112, align 8
  %114 = load ptr, ptr %5, align 8
  %115 = getelementptr inbounds nuw %struct.PgStat_TableXactStatus, ptr %114, i32 0, i32 1
  %116 = load i64, ptr %115, align 8
  %117 = add i64 %113, %116
  %118 = load ptr, ptr %6, align 8
  %119 = getelementptr inbounds nuw %struct.PgStat_TableStatus, ptr %118, i32 0, i32 3
  %120 = getelementptr inbounds nuw %struct.PgStat_TableCounts, ptr %119, i32 0, i32 10
  %121 = load i64, ptr %120, align 8
  %122 = add i64 %121, %117
  store i64 %122, ptr %120, align 8
  br label %123

123:                                              ; preds = %110, %69
  %124 = load ptr, ptr %6, align 8
  %125 = getelementptr inbounds nuw %struct.PgStat_TableStatus, ptr %124, i32 0, i32 2
  store ptr null, ptr %125, align 8
  call void @llvm.lifetime.end.p0(i64 8, ptr %6) #6
  br label %126

126:                                              ; preds = %123
  %127 = load ptr, ptr %5, align 8
  %128 = getelementptr inbounds nuw %struct.PgStat_TableXactStatus, ptr %127, i32 0, i32 10
  %129 = load ptr, ptr %128, align 8
  store ptr %129, ptr %5, align 8
  br label %11, !llvm.loop !9

130:                                              ; preds = %11
  call void @llvm.lifetime.end.p0(i64 8, ptr %5) #6
  ret void
}