; Function Attrs: nofree norecurse nosync nounwind memory(readwrite, inaccessiblemem: none) uwtable
define dso_local void @AtEOXact_PgStat_Relations(ptr noundef readonly captures(none) %0, i1 noundef zeroext %1) local_unnamed_addr #6 {
  %3 = getelementptr inbounds nuw i8, ptr %0, i64 40
  %.031 = load ptr, ptr %3, align 8
  %.not32 = icmp eq ptr %.031, null
  br i1 %.not32, label %._crit_edge, label %.lr.ph

.lr.ph:                                           ; preds = %2
  br i1 %1, label %restore_truncdrop_counters.exit.us, label %.lr.ph.split

restore_truncdrop_counters.exit.us:               ; preds = %.lr.ph, %26
  %.033.us = phi ptr [ %.0.us, %26 ], [ %.031, %.lr.ph ]
  %4 = getelementptr inbounds nuw i8, ptr %.033.us, i64 72
  %5 = load ptr, ptr %4, align 8
  %6 = load i64, ptr %.033.us, align 8
  %7 = getelementptr inbounds nuw i8, ptr %5, i64 40
  %8 = load i64, ptr %7, align 8
  %9 = add i64 %8, %6
  store i64 %9, ptr %7, align 8
  %10 = getelementptr inbounds nuw i8, ptr %.033.us, i64 8
  %11 = load i64, ptr %10, align 8
  %12 = getelementptr inbounds nuw i8, ptr %5, i64 48
  %13 = load i64, ptr %12, align 8
  %14 = add i64 %13, %11
  store i64 %14, ptr %12, align 8
  %15 = getelementptr inbounds nuw i8, ptr %.033.us, i64 16
  %16 = load i64, ptr %15, align 8
  %17 = getelementptr inbounds nuw i8, ptr %5, i64 56
  %18 = load i64, ptr %17, align 8
  %19 = add i64 %18, %16
  store i64 %19, ptr %17, align 8
  %20 = getelementptr inbounds nuw i8, ptr %.033.us, i64 24
  %21 = load i8, ptr %20, align 8, !range !4, !noundef !5
  %22 = getelementptr inbounds nuw i8, ptr %5, i64 80
  store i8 %21, ptr %22, align 8
  %23 = trunc nuw i8 %21 to i1
  %24 = getelementptr inbounds nuw i8, ptr %5, i64 88
  br i1 %23, label %25, label %restore_truncdrop_counters.exit.us._crit_edge

restore_truncdrop_counters.exit.us._crit_edge:    ; preds = %restore_truncdrop_counters.exit.us
  %.pre35 = load i64, ptr %24, align 8
  %.phi.trans.insert36 = getelementptr inbounds nuw i8, ptr %5, i64 96
  %.pre37 = load i64, ptr %.phi.trans.insert36, align 8
  br label %26

25:                                               ; preds = %restore_truncdrop_counters.exit.us
  tail call void @llvm.memset.p0.i64(ptr noundef nonnull align 8 dereferenceable(16) %24, i8 0, i64 16, i1 false)
  br label %26

26:                                               ; preds = %restore_truncdrop_counters.exit.us._crit_edge, %25
  %27 = phi i64 [ %.pre37, %restore_truncdrop_counters.exit.us._crit_edge ], [ 0, %25 ]
  %28 = phi i64 [ %.pre35, %restore_truncdrop_counters.exit.us._crit_edge ], [ 0, %25 ]
  %29 = load i64, ptr %.033.us, align 8
  %30 = load i64, ptr %15, align 8
  %31 = sub i64 %29, %30
  %32 = getelementptr inbounds nuw i8, ptr %5, i64 88
  %33 = add i64 %31, %28
  store i64 %33, ptr %32, align 8
  %34 = load i64, ptr %10, align 8
  %35 = load i64, ptr %15, align 8
  %36 = add i64 %35, %34
  %37 = getelementptr inbounds nuw i8, ptr %5, i64 96
  %38 = add i64 %36, %27
  store i64 %38, ptr %37, align 8
  %39 = load i64, ptr %.033.us, align 8
  %40 = load i64, ptr %10, align 8
  %41 = add i64 %40, %39
  %42 = load i64, ptr %15, align 8
  %43 = add i64 %41, %42
  %44 = getelementptr inbounds nuw i8, ptr %5, i64 104
  %45 = load i64, ptr %44, align 8
  %46 = add i64 %43, %45
  store i64 %46, ptr %44, align 8
  %47 = getelementptr inbounds nuw i8, ptr %5, i64 8
  store ptr null, ptr %47, align 8
  %48 = getelementptr inbounds nuw i8, ptr %.033.us, i64 80
  %.0.us = load ptr, ptr %48, align 8
  %.not.us = icmp eq ptr %.0.us, null
  br i1 %.not.us, label %._crit_edge, label %restore_truncdrop_counters.exit.us, !llvm.loop !10

.lr.ph.split:                                     ; preds = %.lr.ph, %restore_truncdrop_counters.exit
  %.033 = phi ptr [ %.0, %restore_truncdrop_counters.exit ], [ %.031, %.lr.ph ]
  %49 = getelementptr inbounds nuw i8, ptr %.033, i64 72
  %50 = load ptr, ptr %49, align 8
  %51 = getelementptr inbounds nuw i8, ptr %.033, i64 24
  %52 = load i8, ptr %51, align 8, !range !4, !noundef !5
  %53 = trunc nuw i8 %52 to i1
  br i1 %53, label %54, label %.lr.ph.split.restore_truncdrop_counters.exit_crit_edge

.lr.ph.split.restore_truncdrop_counters.exit_crit_edge: ; preds = %.lr.ph.split
  %.pre = load i64, ptr %.033, align 8
  br label %restore_truncdrop_counters.exit

54:                                               ; preds = %.lr.ph.split
  %55 = getelementptr inbounds nuw i8, ptr %.033, i64 32
  %56 = load i64, ptr %55, align 8
  store i64 %56, ptr %.033, align 8
  %57 = getelementptr inbounds nuw i8, ptr %.033, i64 40
  %58 = load i64, ptr %57, align 8
  %59 = getelementptr inbounds nuw i8, ptr %.033, i64 8
  store i64 %58, ptr %59, align 8
  %60 = getelementptr inbounds nuw i8, ptr %.033, i64 48
  %61 = load i64, ptr %60, align 8
  %62 = getelementptr inbounds nuw i8, ptr %.033, i64 16
  store i64 %61, ptr %62, align 8
  br label %restore_truncdrop_counters.exit

restore_truncdrop_counters.exit:                  ; preds = %.lr.ph.split.restore_truncdrop_counters.exit_crit_edge, %54
  %63 = phi i64 [ %.pre, %.lr.ph.split.restore_truncdrop_counters.exit_crit_edge ], [ %56, %54 ]
  %64 = getelementptr inbounds nuw i8, ptr %50, i64 40
  %65 = load i64, ptr %64, align 8
  %66 = add i64 %65, %63
  store i64 %66, ptr %64, align 8
  %67 = getelementptr inbounds nuw i8, ptr %.033, i64 8
  %68 = load i64, ptr %67, align 8
  %69 = getelementptr inbounds nuw i8, ptr %50, i64 48
  %70 = load i64, ptr %69, align 8
  %71 = add i64 %70, %68
  store i64 %71, ptr %69, align 8
  %72 = getelementptr inbounds nuw i8, ptr %.033, i64 16
  %73 = load i64, ptr %72, align 8
  %74 = getelementptr inbounds nuw i8, ptr %50, i64 56
  %75 = load i64, ptr %74, align 8
  %76 = add i64 %75, %73
  store i64 %76, ptr %74, align 8
  %77 = load i64, ptr %.033, align 8
  %78 = load i64, ptr %67, align 8
  %79 = add i64 %78, %77
  %80 = getelementptr inbounds nuw i8, ptr %50, i64 96
  %81 = load i64, ptr %80, align 8
  %82 = add i64 %79, %81
  store i64 %82, ptr %80, align 8
  %83 = getelementptr inbounds nuw i8, ptr %50, i64 8
  store ptr null, ptr %83, align 8
  %84 = getelementptr inbounds nuw i8, ptr %.033, i64 80
  %.0 = load ptr, ptr %84, align 8
  %.not = icmp eq ptr %.0, null
  br i1 %.not, label %._crit_edge, label %.lr.ph.split, !llvm.loop !10

._crit_edge:                                      ; preds = %restore_truncdrop_counters.exit, %26, %2
  ret void
}